; ModuleID = 'bench/sdl/original/s_isnan.ll'
source_filename = "bench/sdl/original/s_isnan.ll"
target datalayout = "e-m:e-p270:32:32-p271:32:32-p272:64:64-i64:64-i128:128-f80:128-n8:16:32:64-S128"
target triple = "x86_64-pc-linux-gnu"

; Function Attrs: mustprogress nofree norecurse nosync nounwind willreturn memory(none) uwtable
define hidden range(i32 0, 2) i32 @SDL_uclibc_isnan(double noundef %0) local_unnamed_addr #0 {
  %2 = bitcast double %0 to i64
  %.sroa.0.4.extract.shift = lshr i64 %2, 32
  %.sroa.0.4.extract.trunc = trunc nuw i64 %.sroa.0.4.extract.shift to i32
  %3 = and i32 %.sroa.0.4.extract.trunc, 2147483647
  %4 = and i64 %2, 4294967295
  %5 = icmp ne i64 %4, 0
  %6 = zext i1 %5 to i32
  %7 = or i32 %3, %6
  %8 = icmp samesign ugt i32 %7, 2146435072
  %9 = zext i1 %8 to i32
  ret i32 %9
}


!llvm.module.flags = !{!0, !1, !2, !3}

!0 = !{i32 1, !"wchar_size", i32 4}
!1 = !{i32 8, !"PIC Level", i32 2}
!2 = !{i32 7, !"PIE Level", i32 2}
!3 = !{i32 7, !"uwtable", i32 2}
